---
triple:          'arm64-apple-darwin'
binary-path:     '/Users/varun/Desktop/Projects/Virtual-Mouse-using-OpenCV/output/main'
relocations:
  - { offsetInCU: 0x3F, offset: 0x3F, size: 0x8, addend: 0x0, symName: _frame_lock, symObjAddr: 0x23E0, symBinAddr: 0x10000C000, symSize: 0x0 }
  - { offsetInCU: 0xA3B9, offset: 0xA3B9, size: 0x8, addend: 0x0, symName: __ZNSt3__124__put_character_sequenceB7v160006IcNS_11char_traitsIcEEEERNS_13basic_ostreamIT_T0_EES7_PKS4_m, symObjAddr: 0x9AC, symBinAddr: 0x100006114, symSize: 0x1EC }
  - { offsetInCU: 0xFC2D, offset: 0xFC2D, size: 0x8, addend: 0x0, symName: __ZNSt3__1lsB7v160006INS_11char_traitsIcEEEERNS_13basic_ostreamIcT_EES6_PKc, symObjAddr: 0x170, symBinAddr: 0x1000058D8, symSize: 0x48 }
  - { offsetInCU: 0xFC73, offset: 0xFC73, size: 0x8, addend: 0x0, symName: __ZNSt3__14endlB7v160006IcNS_11char_traitsIcEEEERNS_13basic_ostreamIT_T0_EES7_, symObjAddr: 0x1E4, symBinAddr: 0x10000594C, symSize: 0x58 }
  - { offsetInCU: 0xFD43, offset: 0xFD43, size: 0x8, addend: 0x0, symName: __ZNSt3__13refB7v160006IN2cv12VideoCaptureEEENS_17reference_wrapperIT_EERS4_, symObjAddr: 0x618, symBinAddr: 0x100005D80, symSize: 0x2C }
  - { offsetInCU: 0xFF5C, offset: 0xFF5C, size: 0x8, addend: 0x0, symName: __ZNSt3__119__debug_db_insert_cB7v160006INS_12basic_stringIcNS_11char_traitsIcEENS_9allocatorIcEEEEEEvPT_, symObjAddr: 0x8B0, symBinAddr: 0x100006018, symSize: 0x10 }
  - { offsetInCU: 0xFF8D, offset: 0xFF8D, size: 0x8, addend: 0x0, symName: __ZNSt3__118__constexpr_strlenB7v160006EPKc, symObjAddr: 0x97C, symBinAddr: 0x1000060E4, symSize: 0x24 }
  - { offsetInCU: 0xFFB9, offset: 0xFFB9, size: 0x8, addend: 0x0, symName: __ZNSt3__116__pad_and_outputB7v160006IcNS_11char_traitsIcEEEENS_19ostreambuf_iteratorIT_T0_EES6_PKS4_S8_S8_RNS_8ios_baseES4_, symObjAddr: 0xBB4, symBinAddr: 0x10000631C, symSize: 0x240 }
  - { offsetInCU: 0x10088, offset: 0x10088, size: 0x8, addend: 0x0, symName: __ZNSt3__112__to_addressB7v160006IKcEEPT_S3_, symObjAddr: 0x102C, symBinAddr: 0x100006794, symSize: 0x14 }
  - { offsetInCU: 0x100F0, offset: 0x100F0, size: 0x8, addend: 0x0, symName: __ZNSt3__19use_facetB7v160006INS_5ctypeIcEEEERKT_RKNS_6localeE, symObjAddr: 0x12AC, symBinAddr: 0x100006A14, symSize: 0x2C }
  - { offsetInCU: 0x109BC, offset: 0x109BC, size: 0x8, addend: 0x0, symName: __ZNSt3__122__libcpp_thread_createB7v160006EPP17_opaque_pthread_tPFPvS3_ES3_, symObjAddr: 0x1608, symBinAddr: 0x100006D70, symSize: 0x38 }
  - { offsetInCU: 0x10A08, offset: 0x10A08, size: 0x8, addend: 0x0, symName: __ZNSt3__114__thread_proxyB7v160006INS_5tupleIJNS_10unique_ptrINS_15__thread_structENS_14default_deleteIS3_EEEEPFvRN2cv12VideoCaptureEENS_17reference_wrapperIS8_EEEEEEEPvSF_, symObjAddr: 0x1640, symBinAddr: 0x100006DA8, symSize: 0x90 }
  - { offsetInCU: 0x10B6E, offset: 0x10B6E, size: 0x8, addend: 0x0, symName: __ZNSt3__13getB7v160006ILm0EJNS_10unique_ptrINS_15__thread_structENS_14default_deleteIS2_EEEEPFvRN2cv12VideoCaptureEENS_17reference_wrapperIS7_EEEEERNS_13tuple_elementIXT_ENS_5tupleIJDpT0_EEEE4typeERSH_, symObjAddr: 0x1D38, symBinAddr: 0x1000074A0, symSize: 0x24 }
  - { offsetInCU: 0x10BBB, offset: 0x10BBB, size: 0x8, addend: 0x0, symName: __ZNSt3__116__thread_executeB7v160006INS_10unique_ptrINS_15__thread_structENS_14default_deleteIS2_EEEEPFvRN2cv12VideoCaptureEEJNS_17reference_wrapperIS7_EEEJLm2EEEEvRNS_5tupleIJT_T0_DpT1_EEENS_15__tuple_indicesIJXspT2_EEEE, symObjAddr: 0x1D5C, symBinAddr: 0x1000074C4, symSize: 0x3C }
  - { offsetInCU: 0x10C19, offset: 0x10C19, size: 0x8, addend: 0x0, symName: __ZNSt3__116__libcpp_tls_setB7v160006EmPv, symObjAddr: 0x1D98, symBinAddr: 0x100007500, symSize: 0x2C }
  - { offsetInCU: 0x10C56, offset: 0x10C56, size: 0x8, addend: 0x0, symName: __ZNSt3__18__invokeB7v160006IPFvRN2cv12VideoCaptureEEJNS_17reference_wrapperIS2_EEEEEDTclclsr3stdE7declvalIT_EEspclsr3stdE7declvalIT0_EEEEOS8_DpOS9_, symObjAddr: 0x1DD8, symBinAddr: 0x100007540, symSize: 0x3C }
  - { offsetInCU: 0x10CA3, offset: 0x10CA3, size: 0x8, addend: 0x0, symName: __ZNSt3__13getB7v160006ILm1EJNS_10unique_ptrINS_15__thread_structENS_14default_deleteIS2_EEEEPFvRN2cv12VideoCaptureEENS_17reference_wrapperIS7_EEEEERNS_13tuple_elementIXT_ENS_5tupleIJDpT0_EEEE4typeERSH_, symObjAddr: 0x1E14, symBinAddr: 0x10000757C, symSize: 0x28 }
  - { offsetInCU: 0x10CF0, offset: 0x10CF0, size: 0x8, addend: 0x0, symName: __ZNSt3__13getB7v160006ILm2EJNS_10unique_ptrINS_15__thread_structENS_14default_deleteIS2_EEEEPFvRN2cv12VideoCaptureEENS_17reference_wrapperIS7_EEEEERNS_13tuple_elementIXT_ENS_5tupleIJDpT0_EEEE4typeERSH_, symObjAddr: 0x1E3C, symBinAddr: 0x1000075A4, symSize: 0x28 }
  - { offsetInCU: 0x11276, offset: 0x11276, size: 0x8, addend: 0x0, symName: _frame, symObjAddr: 0x5EC78, symBinAddr: 0x10000C040, symSize: 0x0 }
  - { offsetInCU: 0x1AE64, offset: 0x1AE64, size: 0x8, addend: 0x0, symName: __Z13camera_threadRN2cv12VideoCaptureE, symObjAddr: 0x0, symBinAddr: 0x100005768, symSize: 0x170 }
  - { offsetInCU: 0x1AEB9, offset: 0x1AEB9, size: 0x8, addend: 0x0, symName: __ZNSt3__113basic_ostreamIcNS_11char_traitsIcEEElsB7v160006EPFRS3_S4_E, symObjAddr: 0x1B8, symBinAddr: 0x100005920, symSize: 0x2C }
  - { offsetInCU: 0x1AF06, offset: 0x1AF06, size: 0x8, addend: 0x0, symName: __ZNSt3__110lock_guardINS_5mutexEEC1B7v160006ERS1_, symObjAddr: 0x23C, symBinAddr: 0x1000059A4, symSize: 0x34 }
  - { offsetInCU: 0x1AF3E, offset: 0x1AF3E, size: 0x8, addend: 0x0, symName: __ZNSt3__110lock_guardINS_5mutexEED1B7v160006Ev, symObjAddr: 0x270, symBinAddr: 0x1000059D8, symSize: 0x2C }
  - { offsetInCU: 0x1AF68, offset: 0x1AF68, size: 0x8, addend: 0x0, symName: _main, symObjAddr: 0x29C, symBinAddr: 0x100005A04, symSize: 0x37C }
  - { offsetInCU: 0x1B09E, offset: 0x1B09E, size: 0x8, addend: 0x0, symName: __ZNSt3__16threadC1IRFvRN2cv12VideoCaptureEEJNS_17reference_wrapperIS3_EEEvEEOT_DpOT0_, symObjAddr: 0x644, symBinAddr: 0x100005DAC, symSize: 0x3C }
  - { offsetInCU: 0x1B100, offset: 0x1B100, size: 0x8, addend: 0x0, symName: __ZNSt3__112basic_stringIcNS_11char_traitsIcEENS_9allocatorIcEEEC1B7v160006IDnEEPKc, symObjAddr: 0x680, symBinAddr: 0x100005DE8, symSize: 0x34 }
  - { offsetInCU: 0x1B13E, offset: 0x1B13E, size: 0x8, addend: 0x0, symName: __ZN2cv11_InputArrayC1ERKNS_3MatE, symObjAddr: 0x6B4, symBinAddr: 0x100005E1C, symSize: 0x34 }
  - { offsetInCU: 0x1B178, offset: 0x1B178, size: 0x8, addend: 0x0, symName: __ZN2cv11_InputArrayD1Ev, symObjAddr: 0x6E8, symBinAddr: 0x100005E50, symSize: 0x2C }
  - { offsetInCU: 0x1B1A4, offset: 0x1B1A4, size: 0x8, addend: 0x0, symName: __ZN2cv11_InputArrayC2ERKNS_3MatE, symObjAddr: 0x714, symBinAddr: 0x100005E7C, symSize: 0x44 }
  - { offsetInCU: 0x1B1DE, offset: 0x1B1DE, size: 0x8, addend: 0x0, symName: __ZN2cv5Size_IiEC1Ev, symObjAddr: 0x758, symBinAddr: 0x100005EC0, symSize: 0x2C }
  - { offsetInCU: 0x1B20A, offset: 0x1B20A, size: 0x8, addend: 0x0, symName: __ZN2cv11_InputArray4initEiPKv, symObjAddr: 0x784, symBinAddr: 0x100005EEC, symSize: 0x2C }
  - { offsetInCU: 0x1B24E, offset: 0x1B24E, size: 0x8, addend: 0x0, symName: __ZN2cv5Size_IiEC2Ev, symObjAddr: 0x7B0, symBinAddr: 0x100005F18, symSize: 0x1C }
  - { offsetInCU: 0x1B27A, offset: 0x1B27A, size: 0x8, addend: 0x0, symName: __ZN2cv11_InputArrayD2Ev, symObjAddr: 0x7CC, symBinAddr: 0x100005F34, symSize: 0x14 }
  - { offsetInCU: 0x1B2A6, offset: 0x1B2A6, size: 0x8, addend: 0x0, symName: __ZNSt3__112basic_stringIcNS_11char_traitsIcEENS_9allocatorIcEEEC2B7v160006IDnEEPKc, symObjAddr: 0x7E0, symBinAddr: 0x100005F48, symSize: 0x60 }
  - { offsetInCU: 0x1B2E9, offset: 0x1B2E9, size: 0x8, addend: 0x0, symName: __ZNSt3__117__compressed_pairINS_12basic_stringIcNS_11char_traitsIcEENS_9allocatorIcEEE5__repES5_EC1B7v160006INS_18__default_init_tagESA_EEOT_OT0_, symObjAddr: 0x840, symBinAddr: 0x100005FA8, symSize: 0x3C }
  - { offsetInCU: 0x1B341, offset: 0x1B341, size: 0x8, addend: 0x0, symName: __ZNSt3__111char_traitsIcE6lengthEPKc, symObjAddr: 0x87C, symBinAddr: 0x100005FE4, symSize: 0x34 }
  - { offsetInCU: 0x1B364, offset: 0x1B364, size: 0x8, addend: 0x0, symName: __ZNSt3__117__compressed_pairINS_12basic_stringIcNS_11char_traitsIcEENS_9allocatorIcEEE5__repES5_EC2B7v160006INS_18__default_init_tagESA_EEOT_OT0_, symObjAddr: 0x8C0, symBinAddr: 0x100006028, symSize: 0x3C }
  - { offsetInCU: 0x1B3BC, offset: 0x1B3BC, size: 0x8, addend: 0x0, symName: __ZNSt3__122__compressed_pair_elemINS_12basic_stringIcNS_11char_traitsIcEENS_9allocatorIcEEE5__repELi0ELb0EEC2B7v160006ENS_18__default_init_tagE, symObjAddr: 0x8FC, symBinAddr: 0x100006064, symSize: 0x14 }
  - { offsetInCU: 0x1B3F1, offset: 0x1B3F1, size: 0x8, addend: 0x0, symName: __ZNSt3__122__compressed_pair_elemINS_9allocatorIcEELi1ELb1EEC2B7v160006ENS_18__default_init_tagE, symObjAddr: 0x910, symBinAddr: 0x100006078, symSize: 0x2C }
  - { offsetInCU: 0x1B426, offset: 0x1B426, size: 0x8, addend: 0x0, symName: __ZNSt3__19allocatorIcEC2B7v160006Ev, symObjAddr: 0x93C, symBinAddr: 0x1000060A4, symSize: 0x2C }
  - { offsetInCU: 0x1B450, offset: 0x1B450, size: 0x8, addend: 0x0, symName: __ZNSt3__116__non_trivial_ifILb1ENS_9allocatorIcEEEC2B7v160006Ev, symObjAddr: 0x968, symBinAddr: 0x1000060D0, symSize: 0x14 }
  - { offsetInCU: 0x1B498, offset: 0x1B498, size: 0x8, addend: 0x0, symName: __ZNKSt3__113basic_ostreamIcNS_11char_traitsIcEEE6sentrycvbB7v160006Ev, symObjAddr: 0xB98, symBinAddr: 0x100006300, symSize: 0x1C }
  - { offsetInCU: 0x1B4BE, offset: 0x1B4BE, size: 0x8, addend: 0x0, symName: __ZNSt3__119ostreambuf_iteratorIcNS_11char_traitsIcEEEC1B7v160006ERNS_13basic_ostreamIcS2_EE, symObjAddr: 0xDF4, symBinAddr: 0x10000655C, symSize: 0x34 }
  - { offsetInCU: 0x1B4F6, offset: 0x1B4F6, size: 0x8, addend: 0x0, symName: __ZNKSt3__18ios_base5flagsB7v160006Ev, symObjAddr: 0xE28, symBinAddr: 0x100006590, symSize: 0x18 }
  - { offsetInCU: 0x1B51E, offset: 0x1B51E, size: 0x8, addend: 0x0, symName: __ZNKSt3__19basic_iosIcNS_11char_traitsIcEEE4fillB7v160006Ev, symObjAddr: 0xE40, symBinAddr: 0x1000065A8, symSize: 0x64 }
  - { offsetInCU: 0x1B546, offset: 0x1B546, size: 0x8, addend: 0x0, symName: __ZNKSt3__119ostreambuf_iteratorIcNS_11char_traitsIcEEE6failedB7v160006Ev, symObjAddr: 0xEA4, symBinAddr: 0x10000660C, symSize: 0x24 }
  - { offsetInCU: 0x1B56C, offset: 0x1B56C, size: 0x8, addend: 0x0, symName: __ZNSt3__19basic_iosIcNS_11char_traitsIcEEE8setstateB7v160006Ej, symObjAddr: 0xEC8, symBinAddr: 0x100006630, symSize: 0x2C }
  - { offsetInCU: 0x1B5A1, offset: 0x1B5A1, size: 0x8, addend: 0x0, symName: __ZNKSt3__18ios_base5widthB7v160006Ev, symObjAddr: 0xEF4, symBinAddr: 0x10000665C, symSize: 0x18 }
  - { offsetInCU: 0x1B5C9, offset: 0x1B5C9, size: 0x8, addend: 0x0, symName: __ZNSt3__115basic_streambufIcNS_11char_traitsIcEEE5sputnB7v160006EPKcl, symObjAddr: 0xF0C, symBinAddr: 0x100006674, symSize: 0x3C }
  - { offsetInCU: 0x1B60B, offset: 0x1B60B, size: 0x8, addend: 0x0, symName: __ZNSt3__112basic_stringIcNS_11char_traitsIcEENS_9allocatorIcEEEC1B7v160006Emc, symObjAddr: 0xF48, symBinAddr: 0x1000066B0, symSize: 0x3C }
  - { offsetInCU: 0x1B653, offset: 0x1B653, size: 0x8, addend: 0x0, symName: __ZNKSt3__112basic_stringIcNS_11char_traitsIcEENS_9allocatorIcEEE4dataB7v160006Ev, symObjAddr: 0xF84, symBinAddr: 0x1000066EC, symSize: 0x28 }
  - { offsetInCU: 0x1B679, offset: 0x1B679, size: 0x8, addend: 0x0, symName: __ZNSt3__18ios_base5widthB7v160006El, symObjAddr: 0xFAC, symBinAddr: 0x100006714, symSize: 0x2C }
  - { offsetInCU: 0x1B6BF, offset: 0x1B6BF, size: 0x8, addend: 0x0, symName: __ZNSt3__112basic_stringIcNS_11char_traitsIcEENS_9allocatorIcEEEC2B7v160006Emc, symObjAddr: 0xFD8, symBinAddr: 0x100006740, symSize: 0x54 }
  - { offsetInCU: 0x1B707, offset: 0x1B707, size: 0x8, addend: 0x0, symName: __ZNKSt3__112basic_stringIcNS_11char_traitsIcEENS_9allocatorIcEEE13__get_pointerB7v160006Ev, symObjAddr: 0x1040, symBinAddr: 0x1000067A8, symSize: 0x54 }
  - { offsetInCU: 0x1B72D, offset: 0x1B72D, size: 0x8, addend: 0x0, symName: __ZNKSt3__112basic_stringIcNS_11char_traitsIcEENS_9allocatorIcEEE9__is_longB7v160006Ev, symObjAddr: 0x1094, symBinAddr: 0x1000067FC, symSize: 0x38 }
  - { offsetInCU: 0x1B753, offset: 0x1B753, size: 0x8, addend: 0x0, symName: __ZNKSt3__112basic_stringIcNS_11char_traitsIcEENS_9allocatorIcEEE18__get_long_pointerB7v160006Ev, symObjAddr: 0x10CC, symBinAddr: 0x100006834, symSize: 0x28 }
  - { offsetInCU: 0x1B779, offset: 0x1B779, size: 0x8, addend: 0x0, symName: __ZNKSt3__112basic_stringIcNS_11char_traitsIcEENS_9allocatorIcEEE19__get_short_pointerB7v160006Ev, symObjAddr: 0x10F4, symBinAddr: 0x10000685C, symSize: 0x28 }
  - { offsetInCU: 0x1B79F, offset: 0x1B79F, size: 0x8, addend: 0x0, symName: __ZNKSt3__117__compressed_pairINS_12basic_stringIcNS_11char_traitsIcEENS_9allocatorIcEEE5__repES5_E5firstB7v160006Ev, symObjAddr: 0x111C, symBinAddr: 0x100006884, symSize: 0x24 }
  - { offsetInCU: 0x1B7C5, offset: 0x1B7C5, size: 0x8, addend: 0x0, symName: __ZNKSt3__122__compressed_pair_elemINS_12basic_stringIcNS_11char_traitsIcEENS_9allocatorIcEEE5__repELi0ELb0EE5__getB7v160006Ev, symObjAddr: 0x1140, symBinAddr: 0x1000068A8, symSize: 0x14 }
  - { offsetInCU: 0x1B7EB, offset: 0x1B7EB, size: 0x8, addend: 0x0, symName: __ZNSt3__114pointer_traitsIPKcE10pointer_toB7v160006ERS1_, symObjAddr: 0x1154, symBinAddr: 0x1000068BC, symSize: 0x14 }
  - { offsetInCU: 0x1B80E, offset: 0x1B80E, size: 0x8, addend: 0x0, symName: __ZNSt3__119ostreambuf_iteratorIcNS_11char_traitsIcEEEC2B7v160006ERNS_13basic_ostreamIcS2_EE, symObjAddr: 0x1168, symBinAddr: 0x1000068D0, symSize: 0x54 }
  - { offsetInCU: 0x1B846, offset: 0x1B846, size: 0x8, addend: 0x0, symName: __ZNKSt3__19basic_iosIcNS_11char_traitsIcEEE5rdbufB7v160006Ev, symObjAddr: 0x11BC, symBinAddr: 0x100006924, symSize: 0x24 }
  - { offsetInCU: 0x1B86E, offset: 0x1B86E, size: 0x8, addend: 0x0, symName: __ZNKSt3__18ios_base5rdbufB7v160006Ev, symObjAddr: 0x11E0, symBinAddr: 0x100006948, symSize: 0x18 }
  - { offsetInCU: 0x1B894, offset: 0x1B894, size: 0x8, addend: 0x0, symName: __ZNSt3__111char_traitsIcE11eq_int_typeEii, symObjAddr: 0x11F8, symBinAddr: 0x100006960, symSize: 0x28 }
  - { offsetInCU: 0x1B8C5, offset: 0x1B8C5, size: 0x8, addend: 0x0, symName: __ZNSt3__111char_traitsIcE3eofEv, symObjAddr: 0x1220, symBinAddr: 0x100006988, symSize: 0x8 }
  - { offsetInCU: 0x1B8D9, offset: 0x1B8D9, size: 0x8, addend: 0x0, symName: __ZNKSt3__19basic_iosIcNS_11char_traitsIcEEE5widenB7v160006Ec, symObjAddr: 0x1228, symBinAddr: 0x100006990, symSize: 0x84 }
  - { offsetInCU: 0x1B942, offset: 0x1B942, size: 0x8, addend: 0x0, symName: __ZNKSt3__15ctypeIcE5widenB7v160006Ec, symObjAddr: 0x12D8, symBinAddr: 0x100006A40, symSize: 0x38 }
  - { offsetInCU: 0x1B977, offset: 0x1B977, size: 0x8, addend: 0x0, symName: __ZNSt3__18ios_base8setstateB7v160006Ej, symObjAddr: 0x1310, symBinAddr: 0x100006A78, symSize: 0x34 }
  - { offsetInCU: 0x1B9AE, offset: 0x1B9AE, size: 0x8, addend: 0x0, symName: __ZNSt3__110lock_guardINS_5mutexEEC2B7v160006ERS1_, symObjAddr: 0x1344, symBinAddr: 0x100006AAC, symSize: 0x3C }
  - { offsetInCU: 0x1B9E6, offset: 0x1B9E6, size: 0x8, addend: 0x0, symName: __ZNSt3__110lock_guardINS_5mutexEED2B7v160006Ev, symObjAddr: 0x1380, symBinAddr: 0x100006AE8, symSize: 0x30 }
  - { offsetInCU: 0x1BA15, offset: 0x1BA15, size: 0x8, addend: 0x0, symName: __ZNSt3__117reference_wrapperIN2cv12VideoCaptureEEC1B7v160006IRS2_vEEOT_, symObjAddr: 0x13B0, symBinAddr: 0x100006B18, symSize: 0x34 }
  - { offsetInCU: 0x1BA57, offset: 0x1BA57, size: 0x8, addend: 0x0, symName: __ZNSt3__117reference_wrapperIN2cv12VideoCaptureEEC2B7v160006IRS2_vEEOT_, symObjAddr: 0x13E4, symBinAddr: 0x100006B4C, symSize: 0x28 }
  - { offsetInCU: 0x1BAB7, offset: 0x1BAB7, size: 0x8, addend: 0x0, symName: __ZNSt3__16threadC2IRFvRN2cv12VideoCaptureEEJNS_17reference_wrapperIS3_EEEvEEOT_DpOT0_, symObjAddr: 0x140C, symBinAddr: 0x100006B74, symSize: 0x150 }
  - { offsetInCU: 0x1BB47, offset: 0x1BB47, size: 0x8, addend: 0x0, symName: __ZNSt3__110unique_ptrINS_15__thread_structENS_14default_deleteIS1_EEEC1B7v160006ILb1EvEEPS1_, symObjAddr: 0x155C, symBinAddr: 0x100006CC4, symSize: 0x34 }
  - { offsetInCU: 0x1BB8A, offset: 0x1BB8A, size: 0x8, addend: 0x0, symName: __ZNSt3__15tupleIJNS_10unique_ptrINS_15__thread_structENS_14default_deleteIS2_EEEEPFvRN2cv12VideoCaptureEENS_17reference_wrapperIS7_EEEEC1B7v160006IJS5_RS9_SC_ELi0EEEDpOT_, symObjAddr: 0x1590, symBinAddr: 0x100006CF8, symSize: 0x44 }
  - { offsetInCU: 0x1BC8D, offset: 0x1BC8D, size: 0x8, addend: 0x0, symName: __ZNSt3__110unique_ptrINS_5tupleIJNS0_INS_15__thread_structENS_14default_deleteIS2_EEEEPFvRN2cv12VideoCaptureEENS_17reference_wrapperIS7_EEEEENS3_ISD_EEEC1B7v160006ILb1EvEEPSD_, symObjAddr: 0x15D4, symBinAddr: 0x100006D3C, symSize: 0x34 }
  - { offsetInCU: 0x1BCD0, offset: 0x1BCD0, size: 0x8, addend: 0x0, symName: __ZNKSt3__110unique_ptrINS_5tupleIJNS0_INS_15__thread_structENS_14default_deleteIS2_EEEEPFvRN2cv12VideoCaptureEENS_17reference_wrapperIS7_EEEEENS3_ISD_EEE3getB7v160006Ev, symObjAddr: 0x16D0, symBinAddr: 0x100006E38, symSize: 0x28 }
  - { offsetInCU: 0x1BCF6, offset: 0x1BCF6, size: 0x8, addend: 0x0, symName: __ZNSt3__110unique_ptrINS_5tupleIJNS0_INS_15__thread_structENS_14default_deleteIS2_EEEEPFvRN2cv12VideoCaptureEENS_17reference_wrapperIS7_EEEEENS3_ISD_EEE7releaseB7v160006Ev, symObjAddr: 0x16F8, symBinAddr: 0x100006E60, symSize: 0x44 }
  - { offsetInCU: 0x1BD2B, offset: 0x1BD2B, size: 0x8, addend: 0x0, symName: __ZNSt3__110unique_ptrINS_5tupleIJNS0_INS_15__thread_structENS_14default_deleteIS2_EEEEPFvRN2cv12VideoCaptureEENS_17reference_wrapperIS7_EEEEENS3_ISD_EEED1B7v160006Ev, symObjAddr: 0x173C, symBinAddr: 0x100006EA4, symSize: 0x2C }
  - { offsetInCU: 0x1BD55, offset: 0x1BD55, size: 0x8, addend: 0x0, symName: __ZNSt3__110unique_ptrINS_15__thread_structENS_14default_deleteIS1_EEED1B7v160006Ev, symObjAddr: 0x1768, symBinAddr: 0x100006ED0, symSize: 0x2C }
  - { offsetInCU: 0x1BD7F, offset: 0x1BD7F, size: 0x8, addend: 0x0, symName: __ZNSt3__110unique_ptrINS_15__thread_structENS_14default_deleteIS1_EEEC2B7v160006ILb1EvEEPS1_, symObjAddr: 0x1794, symBinAddr: 0x100006EFC, symSize: 0x44 }
  - { offsetInCU: 0x1BDC7, offset: 0x1BDC7, size: 0x8, addend: 0x0, symName: __ZNSt3__117__compressed_pairIPNS_15__thread_structENS_14default_deleteIS1_EEEC1B7v160006IRS2_NS_16__value_init_tagEEEOT_OT0_, symObjAddr: 0x17D8, symBinAddr: 0x100006F40, symSize: 0x3C }
  - { offsetInCU: 0x1BE1F, offset: 0x1BE1F, size: 0x8, addend: 0x0, symName: __ZNSt3__117__compressed_pairIPNS_15__thread_structENS_14default_deleteIS1_EEEC2B7v160006IRS2_NS_16__value_init_tagEEEOT_OT0_, symObjAddr: 0x1814, symBinAddr: 0x100006F7C, symSize: 0x40 }
  - { offsetInCU: 0x1BE77, offset: 0x1BE77, size: 0x8, addend: 0x0, symName: __ZNSt3__122__compressed_pair_elemIPNS_15__thread_structELi0ELb0EEC2B7v160006IRS2_vEEOT_, symObjAddr: 0x1854, symBinAddr: 0x100006FBC, symSize: 0x24 }
  - { offsetInCU: 0x1BEB9, offset: 0x1BEB9, size: 0x8, addend: 0x0, symName: __ZNSt3__122__compressed_pair_elemINS_14default_deleteINS_15__thread_structEEELi1ELb1EEC2B7v160006ENS_16__value_init_tagE, symObjAddr: 0x1878, symBinAddr: 0x100006FE0, symSize: 0x14 }
  - { offsetInCU: 0x1BEEE, offset: 0x1BEEE, size: 0x8, addend: 0x0, symName: __ZNSt3__15tupleIJNS_10unique_ptrINS_15__thread_structENS_14default_deleteIS2_EEEEPFvRN2cv12VideoCaptureEENS_17reference_wrapperIS7_EEEEC2B7v160006IJS5_RS9_SC_ELi0EEEDpOT_, symObjAddr: 0x188C, symBinAddr: 0x100006FF4, symSize: 0x44 }
  - { offsetInCU: 0x1BF60, offset: 0x1BF60, size: 0x8, addend: 0x0, symName: __ZNSt3__112__tuple_implINS_15__tuple_indicesIJLm0ELm1ELm2EEEEJNS_10unique_ptrINS_15__thread_structENS_14default_deleteIS4_EEEEPFvRN2cv12VideoCaptureEENS_17reference_wrapperIS9_EEEEC1B7v160006IJLm0ELm1ELm2EEJS7_SC_SE_EJEJEJS7_RSB_SE_EEENS1_IJXspT_EEEENS_13__tuple_typesIJDpT0_EEENS1_IJXspT1_EEEENSJ_IJDpT2_EEEDpOT3_, symObjAddr: 0x18D0, symBinAddr: 0x100007038, symSize: 0x44 }
  - { offsetInCU: 0x1C02F, offset: 0x1C02F, size: 0x8, addend: 0x0, symName: __ZNSt3__112__tuple_implINS_15__tuple_indicesIJLm0ELm1ELm2EEEEJNS_10unique_ptrINS_15__thread_structENS_14default_deleteIS4_EEEEPFvRN2cv12VideoCaptureEENS_17reference_wrapperIS9_EEEEC2B7v160006IJLm0ELm1ELm2EEJS7_SC_SE_EJEJEJS7_RSB_SE_EEENS1_IJXspT_EEEENS_13__tuple_typesIJDpT0_EEENS1_IJXspT1_EEEENSJ_IJDpT2_EEEDpOT3_, symObjAddr: 0x1914, symBinAddr: 0x10000707C, symSize: 0x5C }
  - { offsetInCU: 0x1C0FE, offset: 0x1C0FE, size: 0x8, addend: 0x0, symName: __ZNSt3__112__tuple_leafILm0ENS_10unique_ptrINS_15__thread_structENS_14default_deleteIS2_EEEELb0EEC2B7v160006IS5_vEEOT_, symObjAddr: 0x1970, symBinAddr: 0x1000070D8, symSize: 0x34 }
  - { offsetInCU: 0x1C141, offset: 0x1C141, size: 0x8, addend: 0x0, symName: __ZNSt3__112__tuple_leafILm1EPFvRN2cv12VideoCaptureEELb0EEC2B7v160006IRS4_vEEOT_, symObjAddr: 0x19A4, symBinAddr: 0x10000710C, symSize: 0x20 }
  - { offsetInCU: 0x1C184, offset: 0x1C184, size: 0x8, addend: 0x0, symName: __ZNSt3__112__tuple_leafILm2ENS_17reference_wrapperIN2cv12VideoCaptureEEELb0EEC2B7v160006IS4_vEEOT_, symObjAddr: 0x19C4, symBinAddr: 0x10000712C, symSize: 0x24 }
  - { offsetInCU: 0x1C1C7, offset: 0x1C1C7, size: 0x8, addend: 0x0, symName: __ZNSt3__110unique_ptrINS_15__thread_structENS_14default_deleteIS1_EEEC1B7v160006EOS4_, symObjAddr: 0x19E8, symBinAddr: 0x100007150, symSize: 0x34 }
  - { offsetInCU: 0x1C1FF, offset: 0x1C1FF, size: 0x8, addend: 0x0, symName: __ZNSt3__110unique_ptrINS_15__thread_structENS_14default_deleteIS1_EEEC2B7v160006EOS4_, symObjAddr: 0x1A1C, symBinAddr: 0x100007184, symSize: 0x60 }
  - { offsetInCU: 0x1C237, offset: 0x1C237, size: 0x8, addend: 0x0, symName: __ZNSt3__110unique_ptrINS_15__thread_structENS_14default_deleteIS1_EEE7releaseB7v160006Ev, symObjAddr: 0x1A7C, symBinAddr: 0x1000071E4, symSize: 0x44 }
  - { offsetInCU: 0x1C26C, offset: 0x1C26C, size: 0x8, addend: 0x0, symName: __ZNSt3__110unique_ptrINS_15__thread_structENS_14default_deleteIS1_EEE11get_deleterB7v160006Ev, symObjAddr: 0x1AC0, symBinAddr: 0x100007228, symSize: 0x24 }
  - { offsetInCU: 0x1C29C, offset: 0x1C29C, size: 0x8, addend: 0x0, symName: __ZNSt3__117__compressed_pairIPNS_15__thread_structENS_14default_deleteIS1_EEEC1B7v160006IS2_S4_EEOT_OT0_, symObjAddr: 0x1AE4, symBinAddr: 0x10000724C, symSize: 0x3C }
  - { offsetInCU: 0x1C2F4, offset: 0x1C2F4, size: 0x8, addend: 0x0, symName: __ZNSt3__117__compressed_pairIPNS_15__thread_structENS_14default_deleteIS1_EEE5firstB7v160006Ev, symObjAddr: 0x1B20, symBinAddr: 0x100007288, symSize: 0x24 }
  - { offsetInCU: 0x1C31A, offset: 0x1C31A, size: 0x8, addend: 0x0, symName: __ZNSt3__122__compressed_pair_elemIPNS_15__thread_structELi0ELb0EE5__getB7v160006Ev, symObjAddr: 0x1B44, symBinAddr: 0x1000072AC, symSize: 0x14 }
  - { offsetInCU: 0x1C340, offset: 0x1C340, size: 0x8, addend: 0x0, symName: __ZNSt3__117__compressed_pairIPNS_15__thread_structENS_14default_deleteIS1_EEE6secondB7v160006Ev, symObjAddr: 0x1B58, symBinAddr: 0x1000072C0, symSize: 0x24 }
  - { offsetInCU: 0x1C366, offset: 0x1C366, size: 0x8, addend: 0x0, symName: __ZNSt3__122__compressed_pair_elemINS_14default_deleteINS_15__thread_structEEELi1ELb1EE5__getB7v160006Ev, symObjAddr: 0x1B7C, symBinAddr: 0x1000072E4, symSize: 0x14 }
  - { offsetInCU: 0x1C38C, offset: 0x1C38C, size: 0x8, addend: 0x0, symName: __ZNSt3__117__compressed_pairIPNS_15__thread_structENS_14default_deleteIS1_EEEC2B7v160006IS2_S4_EEOT_OT0_, symObjAddr: 0x1B90, symBinAddr: 0x1000072F8, symSize: 0x44 }
  - { offsetInCU: 0x1C3E4, offset: 0x1C3E4, size: 0x8, addend: 0x0, symName: __ZNSt3__122__compressed_pair_elemIPNS_15__thread_structELi0ELb0EEC2B7v160006IS2_vEEOT_, symObjAddr: 0x1BD4, symBinAddr: 0x10000733C, symSize: 0x24 }
  - { offsetInCU: 0x1C426, offset: 0x1C426, size: 0x8, addend: 0x0, symName: __ZNSt3__122__compressed_pair_elemINS_14default_deleteINS_15__thread_structEEELi1ELb1EEC2B7v160006IS3_vEEOT_, symObjAddr: 0x1BF8, symBinAddr: 0x100007360, symSize: 0x18 }
  - { offsetInCU: 0x1C468, offset: 0x1C468, size: 0x8, addend: 0x0, symName: __ZNSt3__110unique_ptrINS_5tupleIJNS0_INS_15__thread_structENS_14default_deleteIS2_EEEEPFvRN2cv12VideoCaptureEENS_17reference_wrapperIS7_EEEEENS3_ISD_EEEC2B7v160006ILb1EvEEPSD_, symObjAddr: 0x1C10, symBinAddr: 0x100007378, symSize: 0x44 }
  - { offsetInCU: 0x1C4AB, offset: 0x1C4AB, size: 0x8, addend: 0x0, symName: __ZNSt3__117__compressed_pairIPNS_5tupleIJNS_10unique_ptrINS_15__thread_structENS_14default_deleteIS3_EEEEPFvRN2cv12VideoCaptureEENS_17reference_wrapperIS8_EEEEENS4_ISE_EEEC1B7v160006IRSF_NS_16__value_init_tagEEEOT_OT0_, symObjAddr: 0x1C54, symBinAddr: 0x1000073BC, symSize: 0x3C }
  - { offsetInCU: 0x1C503, offset: 0x1C503, size: 0x8, addend: 0x0, symName: __ZNSt3__117__compressed_pairIPNS_5tupleIJNS_10unique_ptrINS_15__thread_structENS_14default_deleteIS3_EEEEPFvRN2cv12VideoCaptureEENS_17reference_wrapperIS8_EEEEENS4_ISE_EEEC2B7v160006IRSF_NS_16__value_init_tagEEEOT_OT0_, symObjAddr: 0x1C90, symBinAddr: 0x1000073F8, symSize: 0x40 }
  - { offsetInCU: 0x1C55B, offset: 0x1C55B, size: 0x8, addend: 0x0, symName: __ZNSt3__122__compressed_pair_elemIPNS_5tupleIJNS_10unique_ptrINS_15__thread_structENS_14default_deleteIS3_EEEEPFvRN2cv12VideoCaptureEENS_17reference_wrapperIS8_EEEEELi0ELb0EEC2B7v160006IRSF_vEEOT_, symObjAddr: 0x1CD0, symBinAddr: 0x100007438, symSize: 0x24 }
  - { offsetInCU: 0x1C59D, offset: 0x1C59D, size: 0x8, addend: 0x0, symName: __ZNSt3__122__compressed_pair_elemINS_14default_deleteINS_5tupleIJNS_10unique_ptrINS_15__thread_structENS1_IS4_EEEEPFvRN2cv12VideoCaptureEENS_17reference_wrapperIS8_EEEEEEELi1ELb1EEC2B7v160006ENS_16__value_init_tagE, symObjAddr: 0x1CF4, symBinAddr: 0x10000745C, symSize: 0x14 }
  - { offsetInCU: 0x1C601, offset: 0x1C601, size: 0x8, addend: 0x0, symName: __ZNSt3__121__thread_specific_ptrINS_15__thread_structEE11set_pointerEPS1_, symObjAddr: 0x1D08, symBinAddr: 0x100007470, symSize: 0x30 }
  - { offsetInCU: 0x1C636, offset: 0x1C636, size: 0x8, addend: 0x0, symName: __ZNSt3__112__tuple_leafILm0ENS_10unique_ptrINS_15__thread_structENS_14default_deleteIS2_EEEELb0EE3getB7v160006Ev, symObjAddr: 0x1DC4, symBinAddr: 0x10000752C, symSize: 0x14 }
  - { offsetInCU: 0x1C65C, offset: 0x1C65C, size: 0x8, addend: 0x0, symName: __ZNKSt3__117reference_wrapperIN2cv12VideoCaptureEEcvRS2_B7v160006Ev, symObjAddr: 0x1E64, symBinAddr: 0x1000075CC, symSize: 0x18 }
  - { offsetInCU: 0x1C682, offset: 0x1C682, size: 0x8, addend: 0x0, symName: __ZNSt3__112__tuple_leafILm1EPFvRN2cv12VideoCaptureEELb0EE3getB7v160006Ev, symObjAddr: 0x1E7C, symBinAddr: 0x1000075E4, symSize: 0x14 }
  - { offsetInCU: 0x1C6A8, offset: 0x1C6A8, size: 0x8, addend: 0x0, symName: __ZNSt3__112__tuple_leafILm2ENS_17reference_wrapperIN2cv12VideoCaptureEEELb0EE3getB7v160006Ev, symObjAddr: 0x1E90, symBinAddr: 0x1000075F8, symSize: 0x14 }
  - { offsetInCU: 0x1C6CE, offset: 0x1C6CE, size: 0x8, addend: 0x0, symName: __ZNKSt3__117__compressed_pairIPNS_5tupleIJNS_10unique_ptrINS_15__thread_structENS_14default_deleteIS3_EEEEPFvRN2cv12VideoCaptureEENS_17reference_wrapperIS8_EEEEENS4_ISE_EEE5firstB7v160006Ev, symObjAddr: 0x1EA4, symBinAddr: 0x10000760C, symSize: 0x24 }
  - { offsetInCU: 0x1C6F4, offset: 0x1C6F4, size: 0x8, addend: 0x0, symName: __ZNKSt3__122__compressed_pair_elemIPNS_5tupleIJNS_10unique_ptrINS_15__thread_structENS_14default_deleteIS3_EEEEPFvRN2cv12VideoCaptureEENS_17reference_wrapperIS8_EEEEELi0ELb0EE5__getB7v160006Ev, symObjAddr: 0x1EC8, symBinAddr: 0x100007630, symSize: 0x14 }
  - { offsetInCU: 0x1C71A, offset: 0x1C71A, size: 0x8, addend: 0x0, symName: __ZNSt3__117__compressed_pairIPNS_5tupleIJNS_10unique_ptrINS_15__thread_structENS_14default_deleteIS3_EEEEPFvRN2cv12VideoCaptureEENS_17reference_wrapperIS8_EEEEENS4_ISE_EEE5firstB7v160006Ev, symObjAddr: 0x1EDC, symBinAddr: 0x100007644, symSize: 0x24 }
  - { offsetInCU: 0x1C740, offset: 0x1C740, size: 0x8, addend: 0x0, symName: __ZNSt3__122__compressed_pair_elemIPNS_5tupleIJNS_10unique_ptrINS_15__thread_structENS_14default_deleteIS3_EEEEPFvRN2cv12VideoCaptureEENS_17reference_wrapperIS8_EEEEELi0ELb0EE5__getB7v160006Ev, symObjAddr: 0x1F00, symBinAddr: 0x100007668, symSize: 0x14 }
  - { offsetInCU: 0x1C766, offset: 0x1C766, size: 0x8, addend: 0x0, symName: __ZNSt3__110unique_ptrINS_5tupleIJNS0_INS_15__thread_structENS_14default_deleteIS2_EEEEPFvRN2cv12VideoCaptureEENS_17reference_wrapperIS7_EEEEENS3_ISD_EEED2B7v160006Ev, symObjAddr: 0x1F14, symBinAddr: 0x10000767C, symSize: 0x30 }
  - { offsetInCU: 0x1C790, offset: 0x1C790, size: 0x8, addend: 0x0, symName: __ZNSt3__110unique_ptrINS_5tupleIJNS0_INS_15__thread_structENS_14default_deleteIS2_EEEEPFvRN2cv12VideoCaptureEENS_17reference_wrapperIS7_EEEEENS3_ISD_EEE5resetB7v160006EPSD_, symObjAddr: 0x1F44, symBinAddr: 0x1000076AC, symSize: 0x78 }
  - { offsetInCU: 0x1C7D4, offset: 0x1C7D4, size: 0x8, addend: 0x0, symName: __ZNSt3__117__compressed_pairIPNS_5tupleIJNS_10unique_ptrINS_15__thread_structENS_14default_deleteIS3_EEEEPFvRN2cv12VideoCaptureEENS_17reference_wrapperIS8_EEEEENS4_ISE_EEE6secondB7v160006Ev, symObjAddr: 0x1FBC, symBinAddr: 0x100007724, symSize: 0x24 }
  - { offsetInCU: 0x1C7FA, offset: 0x1C7FA, size: 0x8, addend: 0x0, symName: __ZNKSt3__114default_deleteINS_5tupleIJNS_10unique_ptrINS_15__thread_structENS0_IS3_EEEEPFvRN2cv12VideoCaptureEENS_17reference_wrapperIS7_EEEEEEclB7v160006EPSD_, symObjAddr: 0x1FE0, symBinAddr: 0x100007748, symSize: 0x4C }
  - { offsetInCU: 0x1C82E, offset: 0x1C82E, size: 0x8, addend: 0x0, symName: __ZNSt3__122__compressed_pair_elemINS_14default_deleteINS_5tupleIJNS_10unique_ptrINS_15__thread_structENS1_IS4_EEEEPFvRN2cv12VideoCaptureEENS_17reference_wrapperIS8_EEEEEEELi1ELb1EE5__getB7v160006Ev, symObjAddr: 0x202C, symBinAddr: 0x100007794, symSize: 0x14 }
  - { offsetInCU: 0x1C854, offset: 0x1C854, size: 0x8, addend: 0x0, symName: __ZNSt3__15tupleIJNS_10unique_ptrINS_15__thread_structENS_14default_deleteIS2_EEEEPFvRN2cv12VideoCaptureEENS_17reference_wrapperIS7_EEEED1Ev, symObjAddr: 0x2040, symBinAddr: 0x1000077A8, symSize: 0x2C }
  - { offsetInCU: 0x1C881, offset: 0x1C881, size: 0x8, addend: 0x0, symName: __ZNSt3__15tupleIJNS_10unique_ptrINS_15__thread_structENS_14default_deleteIS2_EEEEPFvRN2cv12VideoCaptureEENS_17reference_wrapperIS7_EEEED2Ev, symObjAddr: 0x206C, symBinAddr: 0x1000077D4, symSize: 0x2C }
  - { offsetInCU: 0x1C8AE, offset: 0x1C8AE, size: 0x8, addend: 0x0, symName: __ZNSt3__112__tuple_implINS_15__tuple_indicesIJLm0ELm1ELm2EEEEJNS_10unique_ptrINS_15__thread_structENS_14default_deleteIS4_EEEEPFvRN2cv12VideoCaptureEENS_17reference_wrapperIS9_EEEED1Ev, symObjAddr: 0x2098, symBinAddr: 0x100007800, symSize: 0x2C }
  - { offsetInCU: 0x1C8DB, offset: 0x1C8DB, size: 0x8, addend: 0x0, symName: __ZNSt3__112__tuple_implINS_15__tuple_indicesIJLm0ELm1ELm2EEEEJNS_10unique_ptrINS_15__thread_structENS_14default_deleteIS4_EEEEPFvRN2cv12VideoCaptureEENS_17reference_wrapperIS9_EEEED2Ev, symObjAddr: 0x20C4, symBinAddr: 0x10000782C, symSize: 0x2C }
  - { offsetInCU: 0x1C908, offset: 0x1C908, size: 0x8, addend: 0x0, symName: __ZNSt3__112__tuple_leafILm0ENS_10unique_ptrINS_15__thread_structENS_14default_deleteIS2_EEEELb0EED2Ev, symObjAddr: 0x20F0, symBinAddr: 0x100007858, symSize: 0x2C }
  - { offsetInCU: 0x1C935, offset: 0x1C935, size: 0x8, addend: 0x0, symName: __ZNSt3__110unique_ptrINS_15__thread_structENS_14default_deleteIS1_EEED2B7v160006Ev, symObjAddr: 0x211C, symBinAddr: 0x100007884, symSize: 0x30 }
  - { offsetInCU: 0x1C95F, offset: 0x1C95F, size: 0x8, addend: 0x0, symName: __ZNSt3__110unique_ptrINS_15__thread_structENS_14default_deleteIS1_EEE5resetB7v160006EPS1_, symObjAddr: 0x214C, symBinAddr: 0x1000078B4, symSize: 0x78 }
  - { offsetInCU: 0x1C9A3, offset: 0x1C9A3, size: 0x8, addend: 0x0, symName: __ZNKSt3__114default_deleteINS_15__thread_structEEclB7v160006EPS1_, symObjAddr: 0x21C4, symBinAddr: 0x10000792C, symSize: 0x4C }
...
